	.file	"swap.c"
	.intel_syntax noprefix
	.text
.Ltext0:
	.file 0 "/home/tphan/learnc/pointer" "swap.c"
	.globl	bad_swap
	.type	bad_swap, @function
bad_swap:
.LFB0:
	.file 1 "swap.c"
	.loc 1 4 1
	.cfi_startproc
	endbr64
	push	rbp
	.cfi_def_cfa_offset 16
	.cfi_offset 6, -16
	mov	rbp, rsp
	.cfi_def_cfa_register 6
	mov	DWORD PTR -20[rbp], edi
	mov	DWORD PTR -24[rbp], esi
	.loc 1 6 7
	mov	eax, DWORD PTR -20[rbp]
	mov	DWORD PTR -4[rbp], eax
	.loc 1 7 4
	mov	eax, DWORD PTR -24[rbp]
	mov	DWORD PTR -20[rbp], eax
	.loc 1 8 4
	mov	eax, DWORD PTR -4[rbp]
	mov	DWORD PTR -24[rbp], eax
	.loc 1 9 1
	nop
	pop	rbp
	.cfi_def_cfa 7, 8
	ret
	.cfi_endproc
.LFE0:
	.size	bad_swap, .-bad_swap
	.globl	ptr_swap
	.type	ptr_swap, @function
ptr_swap:
.LFB1:
	.loc 1 13 1
	.cfi_startproc
	endbr64
	push	rbp
	.cfi_def_cfa_offset 16
	.cfi_offset 6, -16
	mov	rbp, rsp
	.cfi_def_cfa_register 6
	mov	QWORD PTR -24[rbp], rdi
	mov	QWORD PTR -32[rbp], rsi
	.loc 1 15 7
	mov	rax, QWORD PTR -24[rbp]
	mov	eax, DWORD PTR [rax]
	mov	DWORD PTR -4[rbp], eax
	.loc 1 16 8
	mov	rax, QWORD PTR -32[rbp]
	mov	edx, DWORD PTR [rax]
	.loc 1 16 6
	mov	rax, QWORD PTR -24[rbp]
	mov	DWORD PTR [rax], edx
	.loc 1 17 6
	mov	rax, QWORD PTR -32[rbp]
	mov	edx, DWORD PTR -4[rbp]
	mov	DWORD PTR [rax], edx
	.loc 1 18 1
	nop
	pop	rbp
	.cfi_def_cfa 7, 8
	ret
	.cfi_endproc
.LFE1:
	.size	ptr_swap, .-ptr_swap
	.globl	main
	.type	main, @function
main:
.LFB2:
	.loc 1 21 1
	.cfi_startproc
	endbr64
	push	rbp
	.cfi_def_cfa_offset 16
	.cfi_offset 6, -16
	mov	rbp, rsp
	.cfi_def_cfa_register 6
	sub	rsp, 16
	.loc 1 21 1
	mov	rax, QWORD PTR fs:40
	mov	QWORD PTR -8[rbp], rax
	xor	eax, eax
	.loc 1 22 6
	mov	DWORD PTR -16[rbp], 5
	.loc 1 23 6
	mov	DWORD PTR -12[rbp], 6
	.loc 1 25 2
	mov	edx, DWORD PTR -12[rbp]
	mov	eax, DWORD PTR -16[rbp]
	mov	esi, edx
	mov	edi, eax
	call	bad_swap
	.loc 1 27 2
	lea	rdx, -12[rbp]
	lea	rax, -16[rbp]
	mov	rsi, rdx
	mov	rdi, rax
	call	ptr_swap
	.loc 1 29 9
	mov	eax, 0
	.loc 1 30 1
	mov	rdx, QWORD PTR -8[rbp]
	sub	rdx, QWORD PTR fs:40
	je	.L5
	call	__stack_chk_fail@PLT
.L5:
	leave
	.cfi_def_cfa 7, 8
	ret
	.cfi_endproc
.LFE2:
	.size	main, .-main
.Letext0:
	.section	.note.GNU-stack,"",@progbits
	.section	.note.gnu.property,"a"
	.align 8
	.long	1f - 0f
	.long	4f - 1f
	.long	5
0:
	.string	"GNU"
1:
	.align 8
	.long	0xc0000002
	.long	3f - 2f
2:
	.long	0x3
3:
	.align 8
4:
